Certificate:
    Data:
        Version: 3 (0x2)
        Serial Number: 1 (0x1)
        Signature Algorithm: sha256WithRSAEncryption
        Issuer: C=DE, ST=NRW, L=Dortmund, O=CBPi, OU=CBPiFW, CN=CBPiFW-CA/emailAddress=till.klocke@gmail.com
        Validity
            Not Before: Jan 30 17:26:57 2023 GMT
            Not After : Jan 27 17:26:57 2033 GMT
        Subject: C=DE, ST=NRW, L=Dortmund, O=CBPi, OU=CBPiFW, CN=CBPiFW-Releases 1
        Subject Public Key Info:
            Public Key Algorithm: rsaEncryption
                Public-Key: (4096 bit)
                Modulus:
                    00:ba:2a:c4:f8:eb:4a:f0:4c:c6:04:2b:86:f7:96:
                    65:dc:95:e7:97:52:55:f8:50:96:79:c9:be:b5:8a:
                    68:f4:76:83:26:39:04:a5:9a:f3:87:b5:34:b7:82:
                    cd:65:50:20:c1:f2:f2:a8:25:2f:a9:61:c1:7a:b9:
                    fe:11:85:a7:2e:f8:21:40:92:d2:fb:cb:65:82:65:
                    3b:5f:2a:54:5d:4d:b9:39:9a:4f:b9:a4:88:77:42:
                    96:62:fd:af:9e:1e:0a:3e:96:2c:3a:b7:56:4d:e9:
                    c3:b9:1c:91:16:86:a7:f9:39:e1:15:50:ba:ff:59:
                    6e:f4:ae:48:cb:23:2d:29:50:43:72:e7:37:ca:06:
                    43:37:fb:b4:7a:62:d7:d1:c8:1c:cc:35:e0:bf:8e:
                    ce:e1:22:82:fd:46:b5:1b:96:d4:e3:94:bf:5f:9a:
                    0a:d0:fd:9a:2d:f4:bf:0d:bf:ea:cd:8f:58:a5:d9:
                    24:a2:c2:b7:61:00:b8:8e:a7:4d:18:58:24:e1:ca:
                    a4:88:56:0a:cd:46:00:0d:b8:39:f4:ad:dd:57:d9:
                    54:69:c8:35:aa:98:ef:fc:0d:ee:77:47:2d:01:f2:
                    b1:69:36:15:6b:0c:6b:92:29:c5:24:ff:b6:69:f5:
                    5a:0b:5d:56:46:c9:8e:39:3f:66:34:b4:04:75:16:
                    e9:8a:8a:f0:53:06:e5:21:02:7f:04:91:89:5a:0a:
                    fd:16:44:2d:02:ee:71:aa:39:79:15:51:08:62:c5:
                    7c:1a:da:07:d0:c8:09:cd:0c:a8:f9:61:e8:69:a1:
                    01:1f:d9:42:d4:ec:df:55:07:74:d7:ec:35:ba:c3:
                    1c:bb:b4:77:ba:5d:92:41:33:4f:7f:22:3f:fc:75:
                    14:75:27:6d:a1:e5:76:47:1c:6b:a3:3d:8d:3f:c8:
                    8a:bd:78:bd:35:52:92:83:76:42:4c:f5:e1:22:77:
                    10:78:85:2b:96:0c:b5:c6:b8:99:85:de:d4:2e:25:
                    56:12:38:a5:fe:29:ca:25:e9:8a:d7:c2:ff:8b:07:
                    38:66:93:64:50:24:de:d2:6c:74:12:d2:66:21:eb:
                    d4:7e:c9:66:1e:df:7e:73:f6:0c:4c:30:7a:19:00:
                    fd:15:2d:36:6e:24:4c:17:60:6d:44:7b:0b:1c:35:
                    67:25:0a:6c:b4:9d:4e:31:24:0e:f2:61:e9:5d:70:
                    bb:b5:b1:64:27:a1:73:1f:42:ab:04:0c:87:ee:5e:
                    79:17:42:ac:ce:58:6a:f8:33:64:0a:ac:22:93:76:
                    6a:81:d2:13:4b:48:39:90:72:1b:f3:cd:3a:66:32:
                    88:af:fa:a9:11:1b:c9:5e:c9:c4:0d:e7:3d:df:18:
                    a0:f0:19
                Exponent: 65537 (0x10001)
        X509v3 extensions:
            X509v3 Subject Key Identifier: 
                93:CA:4A:2C:FE:86:5C:CC:6F:9C:20:B6:66:77:1D:3E:50:79:46:2F
            X509v3 Authority Key Identifier: 
                65:BB:84:CB:74:E5:BE:6B:24:51:9A:42:F6:59:E5:B5:B6:E1:02:F3
            X509v3 Basic Constraints: 
                CA:FALSE
            X509v3 Key Usage: 
                Digital Signature, Key Encipherment
            X509v3 Extended Key Usage: critical
                Code Signing
            Netscape Comment: 
                OpenSSL Generated Certificate
    Signature Algorithm: sha256WithRSAEncryption
    Signature Value:
        14:4d:5e:69:75:d0:a7:9f:ce:5d:55:ad:47:ff:a4:e9:1e:07:
        4e:c6:32:ae:0a:54:14:2b:04:9e:85:56:45:7c:29:00:51:3b:
        90:63:ec:91:9c:14:b0:fb:2f:32:06:83:04:8d:15:37:f6:fb:
        5b:02:c2:0c:0c:e3:84:90:5f:6f:b8:50:e8:dc:3c:c1:1a:84:
        8a:eb:53:0e:6a:66:db:5c:a7:b5:4b:e1:60:8d:c3:8a:5c:10:
        38:e7:13:25:49:49:17:00:3a:ba:4f:55:54:db:a8:21:86:7a:
        9f:33:a2:96:a0:0d:38:ed:82:0b:07:0d:8d:6e:22:af:be:0f:
        19:f3:0c:26:51:5e:f4:1f:20:60:e5:72:a3:09:f2:63:20:eb:
        3b:84:d5:a2:b6:8f:bb:02:0a:1f:3c:c0:11:7b:85:04:2f:9d:
        66:f6:4d:5b:33:58:2a:8e:fa:d5:e6:6a:9c:c5:4c:cc:b5:2c:
        1f:86:63:99:38:98:e0:fe:99:13:9e:cf:0c:fa:e9:ea:cd:58:
        a6:92:08:ae:54:86:2f:64:74:9b:c9:eb:9e:6a:75:7c:af:b0:
        92:1f:66:ed:fd:02:c1:d4:5b:53:4f:d2:7c:08:ef:7d:bb:a8:
        70:a3:30:8a:dc:70:19:e1:80:93:6a:8f:78:c8:a8:48:51:6f:
        5e:4a:44:05:e7:5b:7e:88:d0:88:dd:bc:48:15:ca:cd:32:5f:
        a8:8f:67:a4:14:1b:73:35:84:95:5c:0e:5c:ab:3c:2f:0c:32:
        fe:08:1e:f7:03:c3:65:72:fb:1e:62:72:b0:7b:96:fd:2d:d6:
        ad:e7:7b:ca:92:ed:50:6b:3e:63:e0:f5:13:82:c7:01:0a:d9:
        ce:6f:b4:25:e4:fc:71:4d:15:96:3c:9b:dd:74:4d:99:38:dc:
        6a:32:ca:d6:d1:b9:54:5a:05:29:ce:1f:2d:87:e3:44:98:64:
        1c:82:b8:0c:eb:e5:33:d0:67:91:3b:d1:48:27:da:d9:93:7b:
        ca:bc:9d:73:7c:f5:0e:93:ae:42:71:6d:2b:71:d0:33:5b:75:
        e6:e2:ca:92:bd:49:3b:28:a2:97:4a:92:b5:05:a7:a1:0f:10:
        32:53:c9:8c:96:7a:af:2a:4e:49:e2:ae:b1:f7:33:64:26:f2:
        41:32:9b:8f:28:fe:eb:96:7e:60:f5:5a:df:2a:5c:c8:ef:cd:
        81:90:0b:70:c6:61:4b:91:b5:6c:f6:d3:0e:e7:21:40:17:f6:
        05:05:98:31:47:da:22:6d:18:f2:ca:d2:cb:0e:a5:18:df:32:
        ae:d9:62:b1:13:86:9d:ab:10:3a:67:68:16:1b:db:0b:c9:5b:
        97:97:a7:bf:27:9e:af:75
-----BEGIN CERTIFICATE-----
MIIGEDCCA/igAwIBAgIBATANBgkqhkiG9w0BAQsFADCBiDELMAkGA1UEBhMCREUx
DDAKBgNVBAgMA05SVzERMA8GA1UEBwwIRG9ydG11bmQxDTALBgNVBAoMBENCUGkx
DzANBgNVBAsMBkNCUGlGVzESMBAGA1UEAwwJQ0JQaUZXLUNBMSQwIgYJKoZIhvcN
AQkBFhV0aWxsLmtsb2NrZUBnbWFpbC5jb20wHhcNMjMwMTMwMTcyNjU3WhcNMzMw
MTI3MTcyNjU3WjBqMQswCQYDVQQGEwJERTEMMAoGA1UECAwDTlJXMREwDwYDVQQH
DAhEb3J0bXVuZDENMAsGA1UECgwEQ0JQaTEPMA0GA1UECwwGQ0JQaUZXMRowGAYD
VQQDDBFDQlBpRlctUmVsZWFzZXMgMTCCAiIwDQYJKoZIhvcNAQEBBQADggIPADCC
AgoCggIBALoqxPjrSvBMxgQrhveWZdyV55dSVfhQlnnJvrWKaPR2gyY5BKWa84e1
NLeCzWVQIMHy8qglL6lhwXq5/hGFpy74IUCS0vvLZYJlO18qVF1NuTmaT7mkiHdC
lmL9r54eCj6WLDq3Vk3pw7kckRaGp/k54RVQuv9ZbvSuSMsjLSlQQ3LnN8oGQzf7
tHpi19HIHMw14L+OzuEigv1GtRuW1OOUv1+aCtD9mi30vw2/6s2PWKXZJKLCt2EA
uI6nTRhYJOHKpIhWCs1GAA24OfSt3VfZVGnINaqY7/wN7ndHLQHysWk2FWsMa5Ip
xST/tmn1WgtdVkbJjjk/ZjS0BHUW6YqK8FMG5SECfwSRiVoK/RZELQLucao5eRVR
CGLFfBraB9DICc0MqPlh6GmhAR/ZQtTs31UHdNfsNbrDHLu0d7pdkkEzT38iP/x1
FHUnbaHldkcca6M9jT/Iir14vTVSkoN2Qkz14SJ3EHiFK5YMtca4mYXe1C4lVhI4
pf4pyiXpitfC/4sHOGaTZFAk3tJsdBLSZiHr1H7JZh7ffnP2DEwwehkA/RUtNm4k
TBdgbUR7Cxw1ZyUKbLSdTjEkDvJh6V1wu7WxZCehcx9CqwQMh+5eeRdCrM5Yavgz
ZAqsIpN2aoHSE0tIOZByG/PNOmYyiK/6qREbyV7JxA3nPd8YoPAZAgMBAAGjgaEw
gZ4wHQYDVR0OBBYEFJPKSiz+hlzMb5wgtmZ3HT5QeUYvMB8GA1UdIwQYMBaAFGW7
hMt05b5rJFGaQvZZ5bW24QLzMAkGA1UdEwQCMAAwCwYDVR0PBAQDAgWgMBYGA1Ud
JQEB/wQMMAoGCCsGAQUFBwMDMCwGCWCGSAGG+EIBDQQfFh1PcGVuU1NMIEdlbmVy
YXRlZCBDZXJ0aWZpY2F0ZTANBgkqhkiG9w0BAQsFAAOCAgEAFE1eaXXQp5/OXVWt
R/+k6R4HTsYyrgpUFCsEnoVWRXwpAFE7kGPskZwUsPsvMgaDBI0VN/b7WwLCDAzj
hJBfb7hQ6Nw8wRqEiutTDmpm21yntUvhYI3DilwQOOcTJUlJFwA6uk9VVNuoIYZ6
nzOilqANOO2CCwcNjW4ir74PGfMMJlFe9B8gYOVyownyYyDrO4TVoraPuwIKHzzA
EXuFBC+dZvZNWzNYKo761eZqnMVMzLUsH4ZjmTiY4P6ZE57PDPrp6s1YppIIrlSG
L2R0m8nrnmp1fK+wkh9m7f0CwdRbU0/SfAjvfbuocKMwitxwGeGAk2qPeMioSFFv
XkpEBedbfojQiN28SBXKzTJfqI9npBQbczWElVwOXKs8Lwwy/gge9wPDZXL7HmJy
sHuW/S3Wred7ypLtUGs+Y+D1E4LHAQrZzm+0JeT8cU0Vljyb3XRNmTjcajLK1tG5
VFoFKc4fLYfjRJhkHIK4DOvlM9BnkTvRSCfa2ZN7yrydc3z1DpOuQnFtK3HQM1t1
5uLKkr1JOyiil0qStQWnoQ8QMlPJjJZ6rypOSeKusfczZCbyQTKbjyj+65Z+YPVa
3ypcyO/NgZALcMZhS5G1bPbTDuchQBf2BQWYMUfaIm0Y8srSyw6lGN8yrtlisROG
nasQOmdoFhvbC8lbl5envyeer3U=
-----END CERTIFICATE-----
